(itcsmainproject
alter
p0
(dp1
S'price'
p2
S'50000'
p3
sS'pname'
p4
S'GalaxyJ7PRO'
p5
sS'ptype'
p6
S'samsung'
p7
sS'pno'
p8
S'2'
p9
sS'qty'
p10
S'600'
p11
sb.(itcsmainproject
alter
p0
(dp1
S'price'
p2
S'859'
p3
sS'pname'
p4
S'Calculator'
p5
sS'ptype'
p6
S'sony'
p7
sS'pno'
p8
S'3'
p9
sS'qty'
p10
S'500'
p11
sb.(itcsmainproject
alter
p0
(dp1
S'price'
p2
S'8000'
p3
sS'pname'
p4
S'Powerbank'
p5
sS'ptype'
p6
S'hp'
p7
sS'pno'
p8
S'4'
p9
sS'qty'
p10
S'250'
p11
sb.(itcsmainproject
alter
p0
(dp1
S'price'
p2
S'900'
p3
sS'pname'
p4
S'Bluetoothheadset'
p5
sS'ptype'
p6
S'samsung'
p7
sS'pno'
p8
S'5'
p9
sS'qty'
p10
S'500'
p11
sb.(itcsmainproject
alter
p0
(dp1
S'price'
p2
S'150'
p3
sS'pname'
p4
S'pendrive'
p5
sS'ptype'
p6
S'sony'
p7
sS'pno'
p8
S'1'
p9
sS'qty'
p10
S'650'
p11
sb.