(itcsmainproject
alter
p0
(dp1
S'price'
p2
S'150'
p3
sS'ptype'
p4
S'sony'
p5
sS'qty'
p6
S'3'
p7
sS'pname'
p8
S'pendrive'
p9
sS'pno'
p10
S'3'
p11
sS'date'
p12
S'25-11-17'
p13
sS'tc'
p14
I450
sb.(itcsmainproject
alter
p0
(dp1
S'price'
p2
S'50000'
p3
sS'ptype'
p4
S'sony'
p5
sS'qty'
p6
S'2'
p7
sS'pname'
p8
S'mobile'
p9
sS'pno'
p10
S'3'
p11
sS'date'
p12
S'25-11-17'
p13
sS'tc'
p14
I100000
sb.(itcsmainproject
alter
p0
(dp1
S'price'
p2
S'7000'
p3
sS'ptype'
p4
S'sony'
p5
sS'qty'
p6
S'5'
p7
sS'pname'
p8
S'mobile'
p9
sS'pno'
p10
S'3'
p11
sS'date'
p12
S'30.12.17'
p13
sS'tc'
p14
I35000
sb.(itcsmainproject
alter
p0
(dp1
S'price'
p2
S'150'
p3
sS'ptype'
p4
S'sony'
p5
sS'qty'
p6
S'1'
p7
sS'pname'
p8
S'pendrive'
p9
sS'pno'
p10
S'3'
p11
sS'date'
p12
S'05-01-08'
p13
sS'tc'
p14
I150
sb.